target datalayout = "e-m:e-p270:32:32-p271:32:32-p272:64:64-i64:64-i128:128-f80:128-n8:16:32:64-S128"
target triple = "x86_64-pc-linux-gnu"

%struct.cli_ctx_tag = type { ptr, ptr, ptr, ptr, ptr, ptr, ptr, i64, ptr, i32, i32, ptr, i32, i32, ptr, [16 x i8], ptr, ptr, ptr, ptr, ptr, ptr, %struct.timeval, i8, i8 }
%struct.timeval = type { i64, i64 }
%struct.cl_engine = type { i32, i32, i32, [2 x i32], i32, i32, i32, ptr, i32, i64, i32, i32, i64, i64, i32, i32, i32, i32, ptr, ptr, ptr, ptr, ptr, ptr, ptr, ptr, ptr, ptr, ptr, ptr, ptr, ptr, ptr, ptr, ptr, ptr, ptr, i64, ptr, %struct.crtmgr, ptr, ptr, ptr, ptr, ptr, ptr, ptr, ptr, ptr, ptr, ptr, ptr, ptr, ptr, ptr, ptr, ptr, %struct.cli_all_bc, [7 x ptr], [7 x i32], i32, i32, i32, i32, i64, i64, i64, i64, i64, ptr, ptr, ptr, ptr, ptr, ptr, ptr, ptr, ptr, i32, i32, i32, i64, i64, i64, ptr }
%struct.crtmgr = type { ptr, i32 }
%struct.cli_all_bc = type { ptr, i32, ptr, %struct.cli_environment, i32 }
%struct.cli_environment = type { i32, i32, i32, i32, i32, i32, i32, [65 x i8], [65 x i8], [65 x i8], [65 x i8], [65 x i8], [65 x i8], [65 x i8], i8, i8, i8, i8, i8, i8, i8, i8, i8 }

@.str.229 = private unnamed_addr constant [19 x i8] c"in cli_scanole2()\0A\00", align 1
@.str.230 = private unnamed_addr constant [9 x i8] c"ole2-tmp\00", align 1
@.str.231 = private unnamed_addr constant [43 x i8] c"OLE2: Can't create temporary directory %s\0A\00", align 1

; Function Attrs: nounwind uwtable
define internal i32 @cli_scanole2(ptr noundef %0) #0 {
  %2 = alloca ptr, align 8
  %3 = alloca ptr, align 8
  %4 = alloca i32, align 4
  %5 = alloca ptr, align 8
  %6 = alloca i32, align 4
  %7 = alloca i32, align 4
  %8 = alloca i32, align 4
  store ptr %0, ptr %2, align 8
  store ptr null, ptr %3, align 8
  store i32 0, ptr %4, align 4
  store ptr null, ptr %5, align 8
  store i32 0, ptr %6, align 4
  store i32 0, ptr %7, align 4
  store i32 0, ptr %8, align 4
  call void (ptr, ...) @cli_dbgmsg(ptr noundef @.str.229)
  %9 = load ptr, ptr %2, align 8
  %10 = getelementptr inbounds %struct.cli_ctx_tag, ptr %9, i32 0, i32 2
  %11 = load ptr, ptr %10, align 8
  %12 = call ptr @cli_gentemp_with_prefix(ptr noundef %11, ptr noundef @.str.230)
  store ptr %12, ptr %3, align 8
  %13 = icmp eq ptr null, %12
  br i1 %13, label %14, label %15

14:                                               ; preds = %1
  store i32 20, ptr %4, align 4
  br label %41

15:                                               ; preds = %1
  %16 = load ptr, ptr %3, align 8
  %17 = call i32 @mkdir(ptr noundef %16, i32 noundef 448) #11
  %18 = icmp ne i32 %17, 0
  br i1 %18, label %19, label %22

19:                                               ; preds = %15
  %20 = load ptr, ptr %3, align 8
  call void (ptr, ...) @cli_dbgmsg(ptr noundef @.str.231, ptr noundef %20)
  %21 = load ptr, ptr %3, align 8
  call void @free(ptr noundef %21) #11
  store ptr null, ptr %3, align 8
  store i32 18, ptr %4, align 4
  br label %41

22:                                               ; preds = %15
  %23 = load ptr, ptr %3, align 8
  %24 = load ptr, ptr %2, align 8
  %25 = call i32 @cli_ole2_extract(ptr noundef %23, ptr noundef %24, ptr noundef %5, ptr noundef %6, ptr noundef %7, ptr noundef %8)
  store i32 %25, ptr %4, align 4
  %26 = load i32, ptr %4, align 4
  %27 = icmp ne i32 0, %26
  br i1 %27, label %28, label %29

28:                                               ; preds = %22
  br label %41

29:                                               ; preds = %22
  %30 = load ptr, ptr %5, align 8
  %31 = icmp ne ptr %30, null
  br i1 %31, label %32, label %40

32:                                               ; preds = %29
  %33 = load ptr, ptr %2, align 8
  %34 = load ptr, ptr %3, align 8
  %35 = load ptr, ptr %5, align 8
  %36 = load i32, ptr %6, align 4
  %37 = load i32, ptr %7, align 4
  %38 = load i32, ptr %8, align 4
  %39 = call i32 @cli_ole2_scan_tempdir(ptr noundef %33, ptr noundef %34, ptr noundef %35, i32 noundef %36, i32 noundef %37, i32 noundef %38)
  store i32 %39, ptr %4, align 4
  br label %40

40:                                               ; preds = %32, %29
  br label %41

41:                                               ; preds = %40, %28, %19, %14
  %42 = load ptr, ptr %5, align 8
  %43 = icmp ne ptr %42, null
  br i1 %43, label %44, label %46

44:                                               ; preds = %41
  %45 = load ptr, ptr %5, align 8
  call void @uniq_free(ptr noundef %45)
  br label %46

46:                                               ; preds = %44, %41
  %47 = load ptr, ptr %3, align 8
  %48 = icmp ne ptr null, %47
  br i1 %48, label %49, label %61

49:                                               ; preds = %46
  %50 = load ptr, ptr %2, align 8
  %51 = getelementptr inbounds %struct.cli_ctx_tag, ptr %50, i32 0, i32 6
  %52 = load ptr, ptr %51, align 8
  %53 = getelementptr inbounds %struct.cl_engine, ptr %52, i32 0, i32 8
  %54 = load i32, ptr %53, align 8
  %55 = icmp ne i32 %54, 0
  br i1 %55, label %59, label %56

56:                                               ; preds = %49
  %57 = load ptr, ptr %3, align 8
  %58 = call i32 @cli_rmdirs(ptr noundef %57)
  br label %59

59:                                               ; preds = %56, %49
  %60 = load ptr, ptr %3, align 8
  call void @free(ptr noundef %60) #11
  br label %61

61:                                               ; preds = %59, %46
  %62 = load i32, ptr %4, align 4
  ret i32 %62
}