; Function Attrs: nounwind uwtable
define internal fastcc i32 @cli_scanole2(ptr noundef %0) unnamed_addr #0 {
  %2 = alloca ptr, align 8
  %3 = alloca i32, align 4
  %4 = alloca i32, align 4
  %5 = alloca i32, align 4
  store ptr null, ptr %2, align 8
  store i32 0, ptr %3, align 4
  store i32 0, ptr %4, align 4
  store i32 0, ptr %5, align 4
  tail call void (ptr, ...) @cli_dbgmsg(ptr noundef nonnull @.str.229) #16
  %6 = getelementptr inbounds nuw i8, ptr %0, i64 16
  %7 = load ptr, ptr %6, align 8
  %8 = tail call ptr @cli_gentemp_with_prefix(ptr noundef %7, ptr noundef nonnull @.str.230) #16
  %9 = icmp eq ptr %8, null
  br i1 %9, label %33, label %10

10:                                               ; preds = %1
  %11 = tail call i32 @mkdir(ptr noundef nonnull %8, i32 noundef 448) #16
  %.not = icmp eq i32 %11, 0
  br i1 %.not, label %13, label %12

12:                                               ; preds = %10
  tail call void (ptr, ...) @cli_dbgmsg(ptr noundef nonnull @.str.231, ptr noundef nonnull %8) #16
  tail call void @free(ptr noundef nonnull %8) #16
  br label %33

13:                                               ; preds = %10
  %14 = call i32 @cli_ole2_extract(ptr noundef nonnull %8, ptr noundef nonnull %0, ptr noundef nonnull %2, ptr noundef nonnull %3, ptr noundef nonnull %4, ptr noundef nonnull %5) #16
  %15 = icmp eq i32 %14, 0
  %16 = load ptr, ptr %2, align 8
  %17 = icmp ne ptr %16, null
  %or.cond = select i1 %15, i1 %17, i1 false
  br i1 %or.cond, label %18, label %thread-pre-split

18:                                               ; preds = %13
  %19 = load i32, ptr %3, align 4
  %20 = load i32, ptr %4, align 4
  %21 = load i32, ptr %5, align 4
  %22 = call fastcc i32 @cli_ole2_scan_tempdir(ptr noundef nonnull %0, ptr noundef %8, ptr noundef %16, i32 noundef %19, i32 noundef %20, i32 noundef %21)
  %.pr.pre = load ptr, ptr %2, align 8
  br label %thread-pre-split

thread-pre-split:                                 ; preds = %18, %13
  %23 = phi ptr [ %16, %13 ], [ %.pr.pre, %18 ]
  %.0 = phi i32 [ %14, %13 ], [ %22, %18 ]
  %.not18 = icmp eq ptr %23, null
  br i1 %.not18, label %25, label %24

24:                                               ; preds = %thread-pre-split
  call void @uniq_free(ptr noundef nonnull %23) #16
  br label %25

25:                                               ; preds = %24, %thread-pre-split
  %26 = getelementptr inbounds nuw i8, ptr %0, i64 48
  %27 = load ptr, ptr %26, align 8
  %28 = getelementptr inbounds nuw i8, ptr %27, i64 40
  %29 = load i32, ptr %28, align 8
  %.not20 = icmp eq i32 %29, 0
  br i1 %.not20, label %30, label %32

30:                                               ; preds = %25
  %31 = call i32 @cli_rmdirs(ptr noundef nonnull %8) #16
  br label %32

32:                                               ; preds = %30, %25
  call void @free(ptr noundef nonnull %8) #16
  br label %33

33:                                               ; preds = %12, %1, %32
  %.02631 = phi i32 [ %.0, %32 ], [ 18, %12 ], [ 20, %1 ]
  ret i32 %.02631
}